target datalayout = "e-m:e-p270:32:32-p271:32:32-p272:64:64-i64:64-i128:128-f80:128-n8:16:32:64-S128"
target triple = "x86_64-pc-linux-gnu"

%struct.quic_conn_st = type { %struct.quic_obj_st, ptr, ptr, ptr, ptr, ptr, ptr, ptr, ptr, %union.bio_addr_st, %struct.quic_thread_assist_st, i64, i16, i32, i32, i64, i32, i64, i32 }
%struct.quic_obj_st = type { %struct.ssl_st, ptr, ptr, ptr, ptr, ptr, i64, i8 }
%struct.ssl_st = type { i32, ptr, ptr, ptr, %struct.CRYPTO_REF_COUNT, ptr, %struct.crypto_ex_data_st }
%struct.CRYPTO_REF_COUNT = type { i32 }
%struct.crypto_ex_data_st = type { ptr, ptr }
%union.bio_addr_st = type { %struct.sockaddr_in6, [84 x i8] }
%struct.sockaddr_in6 = type { i16, i16, i32, %struct.in6_addr, i32 }
%struct.in6_addr = type { %union.anon }
%union.anon = type { [4 x i32] }
%struct.quic_thread_assist_st = type { ptr, ptr, ptr, i32, i32 }
%struct.qctx_st = type { ptr, ptr, ptr, ptr, ptr, i32, i32, i32, i32 }
%struct.quic_terminate_cause_st = type { i64, i64, ptr, i64, i8 }
%struct.ssl_conn_close_info_st = type { i64, i64, ptr, i64, i32 }

; Function Attrs: nounwind uwtable
define internal i32 @expect_quic_conn_only(ptr noundef %0, ptr noundef %1) #0 {
  %3 = alloca ptr, align 8
  %4 = alloca ptr, align 8
  store ptr %0, ptr %3, align 8, !tbaa !136
  store ptr %1, ptr %4, align 8, !tbaa !119
  %5 = load ptr, ptr %3, align 8, !tbaa !136
  %6 = load ptr, ptr %4, align 8, !tbaa !119
  %7 = call i32 @expect_quic_as(ptr noundef %5, ptr noundef %6, i32 noundef 1)
  ret i32 %7
}

; Function Attrs: nounwind uwtable
define i32 @ossl_quic_get_conn_close_info(ptr noundef %0, ptr noundef %1, i64 noundef %2) #0 {
  %4 = alloca i32, align 4
  %5 = alloca ptr, align 8
  %6 = alloca ptr, align 8
  %7 = alloca i64, align 8
  %8 = alloca %struct.qctx_st, align 8
  %9 = alloca ptr, align 8
  %10 = alloca i32, align 4
  store ptr %0, ptr %5, align 8, !tbaa !136
  store ptr %1, ptr %6, align 8, !tbaa !245
  store i64 %2, ptr %7, align 8, !tbaa !169
  call void @llvm.lifetime.start.p0(i64 56, ptr %8) #10
  call void @llvm.lifetime.start.p0(i64 8, ptr %9) #10
  %11 = load ptr, ptr %5, align 8, !tbaa !136
  %12 = call i32 @expect_quic_conn_only(ptr noundef %11, ptr noundef %8)
  %13 = icmp ne i32 %12, 0
  br i1 %13, label %15, label %14

14:                                               ; preds = %3
  store i32 -1, ptr %4, align 4
  store i32 1, ptr %10, align 4
  br label %72

15:                                               ; preds = %3
  %16 = getelementptr inbounds nuw %struct.qctx_st, ptr %8, i32 0, i32 3
  %17 = load ptr, ptr %16, align 8, !tbaa !123
  %18 = getelementptr inbounds nuw %struct.quic_conn_st, ptr %17, i32 0, i32 6
  %19 = load ptr, ptr %18, align 8, !tbaa !106
  %20 = call ptr @ossl_quic_channel_get_terminate_cause(ptr noundef %19)
  store ptr %20, ptr %9, align 8, !tbaa !247
  %21 = load ptr, ptr %9, align 8, !tbaa !247
  %22 = icmp eq ptr %21, null
  br i1 %22, label %23, label %24

23:                                               ; preds = %15
  store i32 0, ptr %4, align 4
  store i32 1, ptr %10, align 4
  br label %72

24:                                               ; preds = %15
  %25 = load ptr, ptr %9, align 8, !tbaa !247
  %26 = getelementptr inbounds nuw %struct.quic_terminate_cause_st, ptr %25, i32 0, i32 0
  %27 = load i64, ptr %26, align 8, !tbaa !249
  %28 = load ptr, ptr %6, align 8, !tbaa !245
  %29 = getelementptr inbounds nuw %struct.ssl_conn_close_info_st, ptr %28, i32 0, i32 0
  store i64 %27, ptr %29, align 8, !tbaa !251
  %30 = load ptr, ptr %9, align 8, !tbaa !247
  %31 = getelementptr inbounds nuw %struct.quic_terminate_cause_st, ptr %30, i32 0, i32 1
  %32 = load i64, ptr %31, align 8, !tbaa !253
  %33 = load ptr, ptr %6, align 8, !tbaa !245
  %34 = getelementptr inbounds nuw %struct.ssl_conn_close_info_st, ptr %33, i32 0, i32 1
  store i64 %32, ptr %34, align 8, !tbaa !254
  %35 = load ptr, ptr %9, align 8, !tbaa !247
  %36 = getelementptr inbounds nuw %struct.quic_terminate_cause_st, ptr %35, i32 0, i32 2
  %37 = load ptr, ptr %36, align 8, !tbaa !255
  %38 = load ptr, ptr %6, align 8, !tbaa !245
  %39 = getelementptr inbounds nuw %struct.ssl_conn_close_info_st, ptr %38, i32 0, i32 2
  store ptr %37, ptr %39, align 8, !tbaa !256
  %40 = load ptr, ptr %9, align 8, !tbaa !247
  %41 = getelementptr inbounds nuw %struct.quic_terminate_cause_st, ptr %40, i32 0, i32 3
  %42 = load i64, ptr %41, align 8, !tbaa !257
  %43 = load ptr, ptr %6, align 8, !tbaa !245
  %44 = getelementptr inbounds nuw %struct.ssl_conn_close_info_st, ptr %43, i32 0, i32 3
  store i64 %42, ptr %44, align 8, !tbaa !258
  %45 = load ptr, ptr %6, align 8, !tbaa !245
  %46 = getelementptr inbounds nuw %struct.ssl_conn_close_info_st, ptr %45, i32 0, i32 4
  store i32 0, ptr %46, align 8, !tbaa !259
  %47 = load ptr, ptr %9, align 8, !tbaa !247
  %48 = getelementptr inbounds nuw %struct.quic_terminate_cause_st, ptr %47, i32 0, i32 4
  %49 = load i8, ptr %48, align 8
  %50 = lshr i8 %49, 1
  %51 = and i8 %50, 1
  %52 = zext i8 %51 to i32
  %53 = icmp ne i32 %52, 0
  br i1 %53, label %59, label %54

54:                                               ; preds = %24
  %55 = load ptr, ptr %6, align 8, !tbaa !245
  %56 = getelementptr inbounds nuw %struct.ssl_conn_close_info_st, ptr %55, i32 0, i32 4
  %57 = load i32, ptr %56, align 8, !tbaa !259
  %58 = or i32 %57, 1
  store i32 %58, ptr %56, align 8, !tbaa !259
  br label %59

59:                                               ; preds = %54, %24
  %60 = load ptr, ptr %9, align 8, !tbaa !247
  %61 = getelementptr inbounds nuw %struct.quic_terminate_cause_st, ptr %60, i32 0, i32 4
  %62 = load i8, ptr %61, align 8
  %63 = and i8 %62, 1
  %64 = zext i8 %63 to i32
  %65 = icmp ne i32 %64, 0
  br i1 %65, label %71, label %66

66:                                               ; preds = %59
  %67 = load ptr, ptr %6, align 8, !tbaa !245
  %68 = getelementptr inbounds nuw %struct.ssl_conn_close_info_st, ptr %67, i32 0, i32 4
  %69 = load i32, ptr %68, align 8, !tbaa !259
  %70 = or i32 %69, 2
  store i32 %70, ptr %68, align 8, !tbaa !259
  br label %71

71:                                               ; preds = %66, %59
  store i32 1, ptr %4, align 4
  store i32 1, ptr %10, align 4
  br label %72

72:                                               ; preds = %71, %23, %14
  call void @llvm.lifetime.end.p0(i64 8, ptr %9) #10
  call void @llvm.lifetime.end.p0(i64 56, ptr %8) #10
  %73 = load i32, ptr %4, align 4
  ret i32 %73
}