; Function Attrs: nounwind uwtable
define range(i32 -1, 2) i32 @ossl_quic_get_conn_close_info(ptr noundef %0, ptr noundef writeonly captures(none) %1, i64 noundef %2) local_unnamed_addr #0 {
  %4 = alloca %struct.qctx_st, align 8
  call void @llvm.lifetime.start.p0(i64 56, ptr nonnull %4) #12
  %5 = call fastcc range(i32 0, 2) i32 @expect_quic_as(ptr noundef %0, ptr noundef nonnull %4, i32 noundef 1)
  %.not = icmp eq i32 %5, 0
  br i1 %.not, label %32, label %6

6:                                                ; preds = %3
  %7 = getelementptr inbounds nuw i8, ptr %4, i64 24
  %8 = load ptr, ptr %7, align 8, !tbaa !134
  %9 = getelementptr inbounds nuw i8, ptr %8, i64 160
  %10 = load ptr, ptr %9, align 8, !tbaa !113
  %11 = call ptr @ossl_quic_channel_get_terminate_cause(ptr noundef %10) #12
  %12 = icmp eq ptr %11, null
  br i1 %12, label %32, label %13

13:                                               ; preds = %6
  %14 = load i64, ptr %11, align 8, !tbaa !209
  store i64 %14, ptr %1, align 8, !tbaa !211
  %15 = getelementptr inbounds nuw i8, ptr %11, i64 8
  %16 = load i64, ptr %15, align 8, !tbaa !213
  %17 = getelementptr inbounds nuw i8, ptr %1, i64 8
  store i64 %16, ptr %17, align 8, !tbaa !214
  %18 = getelementptr inbounds nuw i8, ptr %11, i64 16
  %19 = load ptr, ptr %18, align 8, !tbaa !215
  %20 = getelementptr inbounds nuw i8, ptr %1, i64 16
  store ptr %19, ptr %20, align 8, !tbaa !216
  %21 = getelementptr inbounds nuw i8, ptr %11, i64 24
  %22 = load i64, ptr %21, align 8, !tbaa !217
  %23 = getelementptr inbounds nuw i8, ptr %1, i64 24
  store i64 %22, ptr %23, align 8, !tbaa !218
  %24 = getelementptr inbounds nuw i8, ptr %1, i64 32
  store i32 0, ptr %24, align 8, !tbaa !219
  %25 = getelementptr inbounds nuw i8, ptr %11, i64 32
  %26 = load i8, ptr %25, align 8
  %27 = and i8 %26, 2
  %.not16 = icmp eq i8 %27, 0
  %spec.store.select = zext i1 %.not16 to i32
  store i32 %spec.store.select, ptr %24, align 8
  %28 = load i8, ptr %25, align 8
  %29 = and i8 %28, 1
  %.not17 = icmp eq i8 %29, 0
  br i1 %.not17, label %30, label %32

30:                                               ; preds = %13
  %31 = or disjoint i32 %spec.store.select, 2
  store i32 %31, ptr %24, align 8, !tbaa !219
  br label %32

32:                                               ; preds = %13, %30, %6, %3
  %.0 = phi i32 [ -1, %3 ], [ 0, %6 ], [ 1, %30 ], [ 1, %13 ]
  call void @llvm.lifetime.end.p0(i64 56, ptr nonnull %4) #12
  ret i32 %.0
}